; Function Attrs: alwaysinline norecurse nounwind uwtable
define internal void @_ZNK4ncnn13Scale_x86_fma15forward_inplaceERSt6vectorINS_3MatESaIS2_EERKNS_6OptionE.omp_outlined(ptr noalias noundef readonly captures(none) %0, ptr noalias readnone captures(none) %1, ptr noundef nonnull readonly align 4 captures(none) dereferenceable(4) %2, ptr noundef nonnull readonly align 4 captures(none) dereferenceable(4) %3, ptr noundef nonnull readonly align 8 captures(none) dereferenceable(8) %4, ptr noundef nonnull readonly align 8 captures(none) dereferenceable(8) %5, ptr noundef nonnull readonly align 8 captures(none) dereferenceable(8) %6) #5 personality ptr @__gxx_personality_v0 {
  %8 = alloca i32, align 4
  %9 = alloca i32, align 4
  %10 = alloca i32, align 4
  %11 = alloca i32, align 4
  %12 = load i32, ptr %2, align 4, !tbaa !23
  %13 = icmp sgt i32 %12, 0
  br i1 %13, label %14, label %35

14:                                               ; preds = %7
  %15 = add nsw i32 %12, -1
  call void @llvm.lifetime.start.p0(i64 4, ptr nonnull %8) #6
  store i32 0, ptr %8, align 4, !tbaa !23
  call void @llvm.lifetime.start.p0(i64 4, ptr nonnull %9) #6
  store i32 %15, ptr %9, align 4, !tbaa !23
  call void @llvm.lifetime.start.p0(i64 4, ptr nonnull %10) #6
  store i32 1, ptr %10, align 4, !tbaa !23
  call void @llvm.lifetime.start.p0(i64 4, ptr nonnull %11) #6
  store i32 0, ptr %11, align 4, !tbaa !23
  %16 = load i32, ptr %0, align 4, !tbaa !23
  call void @__kmpc_for_static_init_4(ptr nonnull @1, i32 %16, i32 34, ptr nonnull %11, ptr nonnull %8, ptr nonnull %9, ptr nonnull %10, i32 1, i32 1)
  %17 = load i32, ptr %9, align 4, !tbaa !23
  %18 = call i32 @llvm.smin.i32(i32 %17, i32 %15)
  store i32 %18, ptr %9, align 4, !tbaa !23
  %19 = load i32, ptr %8, align 4, !tbaa !23
  %.not21 = icmp sgt i32 %19, %18
  br i1 %.not21, label %._crit_edge, label %.lr.ph

.lr.ph:                                           ; preds = %14, %.lr.ph
  %.022 = phi i32 [ %34, %.lr.ph ], [ %19, %14 ]
  %20 = load i32, ptr %3, align 4, !tbaa !23
  %21 = shl nsw i32 %.022, 3
  %22 = add nsw i32 %20, %21
  %23 = load ptr, ptr %4, align 8, !tbaa !28
  %24 = sext i32 %22 to i64
  %25 = getelementptr inbounds float, ptr %23, i64 %24
  %26 = load <8 x float>, ptr %25, align 1, !tbaa !47
  %27 = load ptr, ptr %5, align 8, !tbaa !28
  %28 = getelementptr inbounds float, ptr %27, i64 %24
  %29 = load <8 x float>, ptr %28, align 1, !tbaa !47
  %30 = load ptr, ptr %6, align 8, !tbaa !28
  %31 = getelementptr inbounds float, ptr %30, i64 %24
  %32 = load <8 x float>, ptr %31, align 1, !tbaa !47
  %33 = call fast noundef <8 x float> @llvm.fma.v8f32(<8 x float> %26, <8 x float> %29, <8 x float> %32)
  store <8 x float> %33, ptr %25, align 1, !tbaa !47
  %34 = add i32 %.022, 1
  %exitcond.not = icmp eq i32 %.022, %18
  br i1 %exitcond.not, label %._crit_edge, label %.lr.ph

._crit_edge:                                      ; preds = %.lr.ph, %14
  call void @__kmpc_for_static_fini(ptr nonnull @1, i32 %16)
  call void @llvm.lifetime.end.p0(i64 4, ptr nonnull %11) #6
  call void @llvm.lifetime.end.p0(i64 4, ptr nonnull %10) #6
  call void @llvm.lifetime.end.p0(i64 4, ptr nonnull %9) #6
  call void @llvm.lifetime.end.p0(i64 4, ptr nonnull %8) #6
  br label %35

35:                                               ; preds = %._crit_edge, %7
  ret void
}